target datalayout = "e-m:e-p270:32:32-p271:32:32-p272:64:64-i64:64-i128:128-f80:128-n8:16:32:64-S128"
target triple = "x86_64-pc-linux-gnu"

%struct.ec_key_st = type { ptr, ptr, i32, ptr, ptr, ptr, i32, i32, %struct.CRYPTO_REF_COUNT, i32, %struct.crypto_ex_data_st, ptr, ptr, i64 }
%struct.CRYPTO_REF_COUNT = type { i32 }
%struct.crypto_ex_data_st = type { ptr, ptr }

@.str.2 = private unnamed_addr constant [31 x i8] c"../openssl/crypto/ec/ec_asn1.c\00", align 1
@__func__.o2i_ECPublicKey = private unnamed_addr constant [16 x i8] c"o2i_ECPublicKey\00", align 1

; Function Attrs: nounwind uwtable
define ptr @o2i_ECPublicKey(ptr noundef %0, ptr noundef %1, i64 noundef %2) #0 {
  %4 = alloca ptr, align 8
  %5 = alloca ptr, align 8
  %6 = alloca ptr, align 8
  %7 = alloca i64, align 8
  %8 = alloca ptr, align 8
  %9 = alloca i32, align 4
  store ptr %0, ptr %5, align 8, !tbaa !79
  store ptr %1, ptr %6, align 8, !tbaa !14
  store i64 %2, ptr %7, align 8, !tbaa !16
  call void @llvm.lifetime.start.p0(i64 8, ptr %8) #4
  store ptr null, ptr %8, align 8, !tbaa !81
  %10 = load ptr, ptr %5, align 8, !tbaa !79
  %11 = icmp eq ptr %10, null
  br i1 %11, label %22, label %12

12:                                               ; preds = %3
  %13 = load ptr, ptr %5, align 8, !tbaa !79
  %14 = load ptr, ptr %13, align 8, !tbaa !81
  %15 = icmp eq ptr %14, null
  br i1 %15, label %22, label %16

16:                                               ; preds = %12
  %17 = load ptr, ptr %5, align 8, !tbaa !79
  %18 = load ptr, ptr %17, align 8, !tbaa !81
  %19 = getelementptr inbounds nuw %struct.ec_key_st, ptr %18, i32 0, i32 3
  %20 = load ptr, ptr %19, align 8, !tbaa !85
  %21 = icmp eq ptr %20, null
  br i1 %21, label %22, label %23

22:                                               ; preds = %16, %12, %3
  call void @ERR_new()
  call void @ERR_set_debug(ptr noundef @.str.2, i32 noundef 1141, ptr noundef @__func__.o2i_ECPublicKey)
  call void (i32, i32, ptr, ...) @ERR_set_error(i32 noundef 16, i32 noundef 786690, ptr noundef null)
  store ptr null, ptr %4, align 8
  store i32 1, ptr %9, align 4
  br label %39

23:                                               ; preds = %16
  %24 = load ptr, ptr %5, align 8, !tbaa !79
  %25 = load ptr, ptr %24, align 8, !tbaa !81
  store ptr %25, ptr %8, align 8, !tbaa !81
  %26 = load ptr, ptr %8, align 8, !tbaa !81
  %27 = load ptr, ptr %6, align 8, !tbaa !14
  %28 = load ptr, ptr %27, align 8, !tbaa !26
  %29 = load i64, ptr %7, align 8, !tbaa !16
  %30 = call i32 @EC_KEY_oct2key(ptr noundef %26, ptr noundef %28, i64 noundef %29, ptr noundef null)
  %31 = icmp ne i32 %30, 0
  br i1 %31, label %33, label %32

32:                                               ; preds = %23
  call void @ERR_new()
  call void @ERR_set_debug(ptr noundef @.str.2, i32 noundef 1147, ptr noundef @__func__.o2i_ECPublicKey)
  call void (i32, i32, ptr, ...) @ERR_set_error(i32 noundef 16, i32 noundef 524304, ptr noundef null)
  store ptr null, ptr %4, align 8
  store i32 1, ptr %9, align 4
  br label %39

33:                                               ; preds = %23
  %34 = load i64, ptr %7, align 8, !tbaa !16
  %35 = load ptr, ptr %6, align 8, !tbaa !14
  %36 = load ptr, ptr %35, align 8, !tbaa !26
  %37 = getelementptr inbounds i8, ptr %36, i64 %34
  store ptr %37, ptr %35, align 8, !tbaa !26
  %38 = load ptr, ptr %8, align 8, !tbaa !81
  store ptr %38, ptr %4, align 8
  store i32 1, ptr %9, align 4
  br label %39

39:                                               ; preds = %33, %32, %22
  call void @llvm.lifetime.end.p0(i64 8, ptr %8) #4
  %40 = load ptr, ptr %4, align 8
  ret ptr %40
}