; Function Attrs: nounwind uwtable
define ptr @o2i_ECPublicKey(ptr noundef readonly captures(address_is_null) %0, ptr noundef captures(none) %1, i64 noundef %2) local_unnamed_addr #0 {
  %4 = icmp eq ptr %0, null
  br i1 %4, label %12, label %5

5:                                                ; preds = %3
  %6 = load ptr, ptr %0, align 8, !tbaa !52
  %7 = icmp eq ptr %6, null
  br i1 %7, label %12, label %8

8:                                                ; preds = %5
  %9 = getelementptr inbounds nuw i8, ptr %6, i64 24
  %10 = load ptr, ptr %9, align 8, !tbaa !57
  %11 = icmp eq ptr %10, null
  br i1 %11, label %12, label %13

12:                                               ; preds = %8, %5, %3
  tail call void @ERR_new() #8
  tail call void @ERR_set_debug(ptr noundef nonnull @.str.2, i32 noundef 1141, ptr noundef nonnull @__func__.o2i_ECPublicKey) #8
  tail call void (i32, i32, ptr, ...) @ERR_set_error(i32 noundef 16, i32 noundef 786690, ptr noundef null) #8
  br label %20

13:                                               ; preds = %8
  %14 = load ptr, ptr %1, align 8, !tbaa !3
  %15 = tail call i32 @EC_KEY_oct2key(ptr noundef nonnull %6, ptr noundef %14, i64 noundef %2, ptr noundef null) #8
  %.not = icmp eq i32 %15, 0
  br i1 %.not, label %16, label %17

16:                                               ; preds = %13
  tail call void @ERR_new() #8
  tail call void @ERR_set_debug(ptr noundef nonnull @.str.2, i32 noundef 1147, ptr noundef nonnull @__func__.o2i_ECPublicKey) #8
  tail call void (i32, i32, ptr, ...) @ERR_set_error(i32 noundef 16, i32 noundef 524304, ptr noundef null) #8
  br label %20

17:                                               ; preds = %13
  %18 = load ptr, ptr %1, align 8, !tbaa !3
  %19 = getelementptr inbounds i8, ptr %18, i64 %2
  store ptr %19, ptr %1, align 8, !tbaa !3
  br label %20

20:                                               ; preds = %17, %16, %12
  %.0 = phi ptr [ null, %12 ], [ %6, %17 ], [ null, %16 ]
  ret ptr %.0
}